; Function Attrs: null_pointer_is_valid sspstrong uwtable
define hidden void @BusmasterParserFree(ptr noundef %0, ptr noundef readonly captures(none) %1) local_unnamed_addr #2 {
  %3 = icmp eq ptr %0, null
  br i1 %3, label %10, label %4

4:                                                ; preds = %2
  %5 = getelementptr inbounds nuw i8, ptr %0, i64 24
  %.promoted.i = load ptr, ptr %0, align 8
  %6 = icmp ugt ptr %.promoted.i, %5
  br i1 %6, label %.lr.ph.i, label %BusmasterParserFinalize.exit

.lr.ph.i:                                         ; preds = %4, %.lr.ph.i
  %7 = phi ptr [ %8, %.lr.ph.i ], [ %.promoted.i, %4 ]
  %8 = getelementptr i8, ptr %7, i64 -80
  %9 = icmp ugt ptr %8, %5
  br i1 %9, label %.lr.ph.i, label %._crit_edge.i, !llvm.loop !6

._crit_edge.i:                                    ; preds = %.lr.ph.i
  store ptr %8, ptr %0, align 8
  br label %BusmasterParserFinalize.exit

BusmasterParserFinalize.exit:                     ; preds = %4, %._crit_edge.i
  tail call void %1(ptr noundef nonnull %0)
  br label %10

10:                                               ; preds = %2, %BusmasterParserFinalize.exit
  ret void
}